target datalayout = "e-m:e-p270:32:32-p271:32:32-p272:64:64-i64:64-i128:128-f80:128-n8:16:32:64-S128"
target triple = "x86_64-pc-linux-gnu"

; Function Attrs: mustprogress nounwind uwtable
define hidden noundef i32 @_ZNK17BarrierSetNMethod20disarmed_guard_valueEv(ptr noundef nonnull align 8 dereferenceable(12) %0) #1 align 2 {
  %2 = alloca ptr, align 8
  store ptr %0, ptr %2, align 8
  %3 = load ptr, ptr %2, align 8
  %4 = load ptr, ptr %3, align 8
  %5 = getelementptr inbounds ptr, ptr %4, i64 2
  %6 = load ptr, ptr %5, align 8
  %7 = call noundef ptr %6(ptr noundef nonnull align 8 dereferenceable(12) %3)
  %8 = load i32, ptr %7, align 4
  ret i32 %8
}

; Function Attrs: mustprogress nounwind uwtable
define hidden noundef zeroext i1 @_ZN17BarrierSetNMethod8is_armedEP7nmethod(ptr noundef nonnull align 8 dereferenceable(12) %0, ptr noundef %1) #1 align 2 {
  %3 = alloca ptr, align 8
  %4 = alloca ptr, align 8
  store ptr %0, ptr %3, align 8
  store ptr %1, ptr %4, align 8
  %5 = load ptr, ptr %3, align 8
  %6 = load ptr, ptr %4, align 8
  %7 = call noundef i32 @_ZN17BarrierSetNMethod11guard_valueEP7nmethod(ptr noundef nonnull align 8 dereferenceable(12) %5, ptr noundef %6)
  %8 = call noundef i32 @_ZNK17BarrierSetNMethod20disarmed_guard_valueEv(ptr noundef nonnull align 8 dereferenceable(12) %5)
  %9 = icmp ne i32 %7, %8
  ret i1 %9
}