; Function Attrs: mustprogress nounwind uwtable
define hidden noundef zeroext i1 @_ZN17BarrierSetNMethod8is_armedEP7nmethod(ptr noundef nonnull align 8 dereferenceable(12) %0, ptr noundef %1) local_unnamed_addr #0 align 2 {
  %3 = tail call noundef i32 @_ZN17BarrierSetNMethod11guard_valueEP7nmethod(ptr noundef nonnull align 8 dereferenceable(12) %0, ptr noundef %1) #8
  %4 = load ptr, ptr %0, align 8
  %5 = getelementptr inbounds i8, ptr %4, i64 16
  %6 = load ptr, ptr %5, align 8
  %7 = tail call noundef ptr %6(ptr noundef nonnull align 8 dereferenceable(12) %0) #8
  %8 = load i32, ptr %7, align 4
  %9 = icmp ne i32 %3, %8
  ret i1 %9
}